target datalayout = "e-m:e-p270:32:32-p271:32:32-p272:64:64-i64:64-i128:128-f80:128-n8:16:32:64-S128"
target triple = "x86_64-pc-linux-gnu"

%struct.buf_t = type { i32, ptr, i32, i32, i8, i8 }

@.str.1 = private unnamed_addr constant [7 x i8] c"pack.c\00", align 1
@.str.15 = private unnamed_addr constant [49 x i8] c"%s: Buffer to be unpacked is too large (%u > %u)\00", align 1
@__func__.unpackstr_xmalloc = private unnamed_addr constant [18 x i8] c"unpackstr_xmalloc\00", align 1
@slurmdbd_conf = external global ptr, align 8
@__func__.unpackstr_array = private unnamed_addr constant [16 x i8] c"unpackstr_array\00", align 1

; Function Attrs: nounwind uwtable
define dso_local i32 @unpackstr_xmalloc(ptr noundef %0, ptr noundef %1, ptr noundef %2) #0 {
  %4 = alloca i32, align 4
  %5 = alloca ptr, align 8
  %6 = alloca ptr, align 8
  %7 = alloca ptr, align 8
  %8 = alloca i64, align 8
  %9 = alloca i32, align 4
  store ptr %0, ptr %5, align 8
  store ptr %1, ptr %6, align 8
  store ptr %2, ptr %7, align 8
  %10 = load ptr, ptr %5, align 8
  store ptr null, ptr %10, align 8
  br label %11

11:                                               ; preds = %3
  %12 = load ptr, ptr %6, align 8
  %13 = load ptr, ptr %7, align 8
  %14 = call i32 @unpack32(ptr noundef %12, ptr noundef %13)
  %15 = icmp ne i32 %14, 0
  br i1 %15, label %16, label %17

16:                                               ; preds = %11
  br label %100

17:                                               ; preds = %11
  br label %18

18:                                               ; preds = %17
  %19 = load ptr, ptr %6, align 8
  %20 = load i32, ptr %19, align 4
  %21 = icmp ne i32 %20, 0
  br i1 %21, label %23, label %22

22:                                               ; preds = %18
  store i32 0, ptr %4, align 4
  br label %102

23:                                               ; preds = %18
  %24 = load ptr, ptr %6, align 8
  %25 = load i32, ptr %24, align 4
  %26 = icmp ugt i32 %25, 1073741824
  br i1 %26, label %27, label %31

27:                                               ; preds = %23
  %28 = load ptr, ptr %6, align 8
  %29 = load i32, ptr %28, align 4
  %30 = call i32 (ptr, ...) @error(ptr noundef @.str.15, ptr noundef @__func__.unpackstr_xmalloc, i32 noundef %29, i32 noundef 1073741824)
  br label %100

31:                                               ; preds = %23
  %32 = load ptr, ptr %7, align 8
  %33 = getelementptr inbounds nuw %struct.buf_t, ptr %32, i32 0, i32 2
  %34 = load i32, ptr %33, align 8
  %35 = load ptr, ptr %7, align 8
  %36 = getelementptr inbounds nuw %struct.buf_t, ptr %35, i32 0, i32 3
  %37 = load i32, ptr %36, align 4
  %38 = sub i32 %34, %37
  %39 = load ptr, ptr %6, align 8
  %40 = load i32, ptr %39, align 4
  %41 = icmp ult i32 %38, %40
  br i1 %41, label %42, label %43

42:                                               ; preds = %31
  br label %100

43:                                               ; preds = %31
  %44 = load ptr, ptr %7, align 8
  %45 = getelementptr inbounds nuw %struct.buf_t, ptr %44, i32 0, i32 1
  %46 = load ptr, ptr %45, align 8
  %47 = load ptr, ptr %7, align 8
  %48 = getelementptr inbounds nuw %struct.buf_t, ptr %47, i32 0, i32 3
  %49 = load i32, ptr %48, align 4
  %50 = load ptr, ptr %6, align 8
  %51 = load i32, ptr %50, align 4
  %52 = add i32 %49, %51
  %53 = sub i32 %52, 1
  %54 = zext i32 %53 to i64
  %55 = getelementptr inbounds nuw i8, ptr %46, i64 %54
  %56 = load i8, ptr %55, align 1
  %57 = sext i8 %56 to i32
  %58 = icmp ne i32 %57, 0
  br i1 %58, label %59, label %60

59:                                               ; preds = %43
  br label %100

60:                                               ; preds = %43
  br label %61

61:                                               ; preds = %60
  call void @llvm.lifetime.start.p0(i64 8, ptr %8) #9
  %62 = load ptr, ptr %6, align 8
  %63 = load i32, ptr %62, align 4
  %64 = zext i32 %63 to i64
  store i64 %64, ptr %8, align 8
  %65 = load i64, ptr %8, align 8
  %66 = icmp ne i64 %65, 0
  br i1 %66, label %69, label %67

67:                                               ; preds = %61
  %68 = load ptr, ptr %5, align 8
  store ptr null, ptr %68, align 8
  br label %76

69:                                               ; preds = %61
  %70 = load i64, ptr %8, align 8
  %71 = call ptr @slurm_xcalloc(i64 noundef 1, i64 noundef %70, i1 noundef zeroext true, i1 noundef zeroext true, ptr noundef @.str.1, i32 noundef 969, ptr noundef @__func__.unpackstr_xmalloc)
  %72 = load ptr, ptr %5, align 8
  store ptr %71, ptr %72, align 8
  %73 = icmp ne ptr %71, null
  br i1 %73, label %75, label %74

74:                                               ; preds = %69
  store i32 4, ptr %9, align 4
  br label %77

75:                                               ; preds = %69
  br label %76

76:                                               ; preds = %75, %67
  store i32 0, ptr %9, align 4
  br label %77

77:                                               ; preds = %74, %76
  call void @llvm.lifetime.end.p0(i64 8, ptr %8) #9
  %78 = load i32, ptr %9, align 4
  switch i32 %78, label %104 [
    i32 0, label %79
    i32 4, label %100
  ]

79:                                               ; preds = %77
  br label %80

80:                                               ; preds = %79
  %81 = load ptr, ptr %5, align 8
  %82 = load ptr, ptr %81, align 8
  %83 = load ptr, ptr %7, align 8
  %84 = getelementptr inbounds nuw %struct.buf_t, ptr %83, i32 0, i32 1
  %85 = load ptr, ptr %84, align 8
  %86 = load ptr, ptr %7, align 8
  %87 = getelementptr inbounds nuw %struct.buf_t, ptr %86, i32 0, i32 3
  %88 = load i32, ptr %87, align 4
  %89 = zext i32 %88 to i64
  %90 = getelementptr inbounds nuw i8, ptr %85, i64 %89
  %91 = load ptr, ptr %6, align 8
  %92 = load i32, ptr %91, align 4
  %93 = zext i32 %92 to i64
  call void @llvm.memcpy.p0.p0.i64(ptr align 1 %82, ptr align 1 %90, i64 %93, i1 false)
  %94 = load ptr, ptr %6, align 8
  %95 = load i32, ptr %94, align 4
  %96 = load ptr, ptr %7, align 8
  %97 = getelementptr inbounds nuw %struct.buf_t, ptr %96, i32 0, i32 3
  %98 = load i32, ptr %97, align 4
  %99 = add i32 %98, %95
  store i32 %99, ptr %97, align 4
  store i32 0, ptr %4, align 4
  br label %102

100:                                              ; preds = %77, %59, %42, %27, %16
  %101 = load ptr, ptr %6, align 8
  store i32 0, ptr %101, align 4
  store i32 -1, ptr %4, align 4
  br label %102

102:                                              ; preds = %100, %80, %22
  %103 = load i32, ptr %4, align 4
  ret i32 %103

104:                                              ; preds = %77
  unreachable
}

; Function Attrs: inlinehint nounwind uwtable
define internal i32 @__bswap_32(i32 noundef %0) #8 {
  %2 = alloca i32, align 4
  store i32 %0, ptr %2, align 4
  %3 = load i32, ptr %2, align 4
  %4 = and i32 %3, -16777216
  %5 = lshr i32 %4, 24
  %6 = load i32, ptr %2, align 4
  %7 = and i32 %6, 16711680
  %8 = lshr i32 %7, 8
  %9 = or i32 %5, %8
  %10 = load i32, ptr %2, align 4
  %11 = and i32 %10, 65280
  %12 = shl i32 %11, 8
  %13 = or i32 %9, %12
  %14 = load i32, ptr %2, align 4
  %15 = and i32 %14, 255
  %16 = shl i32 %15, 24
  %17 = or i32 %13, %16
  ret i32 %17
}

; Function Attrs: nounwind uwtable
define dso_local i32 @unpackstr_xmalloc_chooser(ptr noundef %0, ptr noundef %1, ptr noundef %2) #0 {
  %4 = alloca i32, align 4
  %5 = alloca ptr, align 8
  %6 = alloca ptr, align 8
  %7 = alloca ptr, align 8
  store ptr %0, ptr %5, align 8
  store ptr %1, ptr %6, align 8
  store ptr %2, ptr %7, align 8
  %8 = load ptr, ptr @slurmdbd_conf, align 8
  %9 = icmp ne ptr %8, null
  br i1 %9, label %10, label %15

10:                                               ; preds = %3
  %11 = load ptr, ptr %5, align 8
  %12 = load ptr, ptr %6, align 8
  %13 = load ptr, ptr %7, align 8
  %14 = call i32 @unpackstr_xmalloc_escaped(ptr noundef %11, ptr noundef %12, ptr noundef %13)
  store i32 %14, ptr %4, align 4
  br label %20

15:                                               ; preds = %3
  %16 = load ptr, ptr %5, align 8
  %17 = load ptr, ptr %6, align 8
  %18 = load ptr, ptr %7, align 8
  %19 = call i32 @unpackstr_xmalloc(ptr noundef %16, ptr noundef %17, ptr noundef %18)
  store i32 %19, ptr %4, align 4
  br label %20

20:                                               ; preds = %15, %10
  %21 = load i32, ptr %4, align 4
  ret i32 %21
}

; Function Attrs: nounwind uwtable
define dso_local i32 @unpack32(ptr noundef %0, ptr noundef %1) #0 {
  %3 = alloca i32, align 4
  %4 = alloca ptr, align 8
  %5 = alloca ptr, align 8
  %6 = alloca i32, align 4
  %7 = alloca i32, align 4
  store ptr %0, ptr %4, align 8
  store ptr %1, ptr %5, align 8
  call void @llvm.lifetime.start.p0(i64 4, ptr %6) #9
  %8 = load ptr, ptr %5, align 8
  %9 = getelementptr inbounds nuw %struct.buf_t, ptr %8, i32 0, i32 2
  %10 = load i32, ptr %9, align 8
  %11 = load ptr, ptr %5, align 8
  %12 = getelementptr inbounds nuw %struct.buf_t, ptr %11, i32 0, i32 3
  %13 = load i32, ptr %12, align 4
  %14 = sub i32 %10, %13
  %15 = zext i32 %14 to i64
  %16 = icmp ult i64 %15, 4
  br i1 %16, label %17, label %18

17:                                               ; preds = %2
  store i32 -1, ptr %3, align 4
  store i32 1, ptr %7, align 4
  br label %36

18:                                               ; preds = %2
  %19 = load ptr, ptr %5, align 8
  %20 = getelementptr inbounds nuw %struct.buf_t, ptr %19, i32 0, i32 1
  %21 = load ptr, ptr %20, align 8
  %22 = load ptr, ptr %5, align 8
  %23 = getelementptr inbounds nuw %struct.buf_t, ptr %22, i32 0, i32 3
  %24 = load i32, ptr %23, align 4
  %25 = zext i32 %24 to i64
  %26 = getelementptr inbounds nuw i8, ptr %21, i64 %25
  call void @llvm.memcpy.p0.p0.i64(ptr align 4 %6, ptr align 1 %26, i64 4, i1 false)
  %27 = load i32, ptr %6, align 4
  %28 = call i32 @__bswap_32(i32 noundef %27)
  %29 = load ptr, ptr %4, align 8
  store i32 %28, ptr %29, align 4
  %30 = load ptr, ptr %5, align 8
  %31 = getelementptr inbounds nuw %struct.buf_t, ptr %30, i32 0, i32 3
  %32 = load i32, ptr %31, align 4
  %33 = zext i32 %32 to i64
  %34 = add i64 %33, 4
  %35 = trunc i64 %34 to i32
  store i32 %35, ptr %31, align 4
  store i32 0, ptr %3, align 4
  store i32 1, ptr %7, align 4
  br label %36

36:                                               ; preds = %18, %17
  call void @llvm.lifetime.end.p0(i64 4, ptr %6) #9
  %37 = load i32, ptr %3, align 4
  ret i32 %37
}

; Function Attrs: nounwind uwtable
define dso_local i32 @unpackstr_array(ptr noundef %0, ptr noundef %1, ptr noundef %2) #0 {
  %4 = alloca i32, align 4
  %5 = alloca ptr, align 8
  %6 = alloca ptr, align 8
  %7 = alloca ptr, align 8
  %8 = alloca i64, align 8
  %9 = alloca i64, align 8
  %10 = alloca i32, align 4
  %11 = alloca i32, align 4
  %12 = alloca i32, align 4
  store ptr %0, ptr %5, align 8
  store ptr %1, ptr %6, align 8
  store ptr %2, ptr %7, align 8
  %13 = load ptr, ptr %5, align 8
  store ptr null, ptr %13, align 8
  br label %14

14:                                               ; preds = %3
  %15 = load ptr, ptr %6, align 8
  %16 = load ptr, ptr %7, align 8
  %17 = call i32 @unpack32(ptr noundef %15, ptr noundef %16)
  %18 = icmp ne i32 %17, 0
  br i1 %18, label %19, label %20

19:                                               ; preds = %14
  br label %86

20:                                               ; preds = %14
  br label %21

21:                                               ; preds = %20
  %22 = load ptr, ptr %6, align 8
  %23 = load i32, ptr %22, align 4
  %24 = icmp ne i32 %23, 0
  br i1 %24, label %26, label %25

25:                                               ; preds = %21
  store i32 0, ptr %4, align 4
  br label %89

26:                                               ; preds = %21
  %27 = load ptr, ptr %6, align 8
  %28 = load i32, ptr %27, align 4
  %29 = icmp ugt i32 %28, 1073741824
  br i1 %29, label %30, label %31

30:                                               ; preds = %26
  br label %86

31:                                               ; preds = %26
  br label %32

32:                                               ; preds = %31
  call void @llvm.lifetime.start.p0(i64 8, ptr %8) #9
  %33 = load ptr, ptr %6, align 8
  %34 = load i32, ptr %33, align 4
  %35 = add i32 %34, 1
  %36 = zext i32 %35 to i64
  store i64 %36, ptr %8, align 8
  call void @llvm.lifetime.start.p0(i64 8, ptr %9) #9
  store i64 8, ptr %9, align 8
  %37 = load i64, ptr %8, align 8
  %38 = icmp ne i64 %37, 0
  br i1 %38, label %39, label %42

39:                                               ; preds = %32
  %40 = load i64, ptr %9, align 8
  %41 = icmp ne i64 %40, 0
  br i1 %41, label %44, label %42

42:                                               ; preds = %39, %32
  %43 = load ptr, ptr %5, align 8
  store ptr null, ptr %43, align 8
  br label %52

44:                                               ; preds = %39
  %45 = load i64, ptr %8, align 8
  %46 = load i64, ptr %9, align 8
  %47 = call ptr @slurm_xcalloc(i64 noundef %45, i64 noundef %46, i1 noundef zeroext true, i1 noundef zeroext true, ptr noundef @.str.1, i32 noundef 1107, ptr noundef @__func__.unpackstr_array)
  %48 = load ptr, ptr %5, align 8
  store ptr %47, ptr %48, align 8
  %49 = icmp ne ptr %47, null
  br i1 %49, label %51, label %50

50:                                               ; preds = %44
  store i32 4, ptr %10, align 4
  br label %53

51:                                               ; preds = %44
  br label %52

52:                                               ; preds = %51, %42
  store i32 0, ptr %10, align 4
  br label %53

53:                                               ; preds = %50, %52
  call void @llvm.lifetime.end.p0(i64 8, ptr %9) #9
  call void @llvm.lifetime.end.p0(i64 8, ptr %8) #9
  %54 = load i32, ptr %10, align 4
  switch i32 %54, label %91 [
    i32 0, label %55
    i32 4, label %86
  ]

55:                                               ; preds = %53
  br label %56

56:                                               ; preds = %55
  call void @llvm.lifetime.start.p0(i64 4, ptr %11) #9
  store i32 0, ptr %11, align 4
  br label %57

57:                                               ; preds = %80, %56
  %58 = load i32, ptr %11, align 4
  %59 = load ptr, ptr %6, align 8
  %60 = load i32, ptr %59, align 4
  %61 = icmp ult i32 %58, %60
  br i1 %61, label %63, label %62

62:                                               ; preds = %57
  store i32 7, ptr %10, align 4
  br label %83

63:                                               ; preds = %57
  br label %64

64:                                               ; preds = %63
  call void @llvm.lifetime.start.p0(i64 4, ptr %12) #9
  %65 = load ptr, ptr %5, align 8
  %66 = load ptr, ptr %65, align 8
  %67 = load i32, ptr %11, align 4
  %68 = zext i32 %67 to i64
  %69 = getelementptr inbounds nuw ptr, ptr %66, i64 %68
  %70 = load ptr, ptr %7, align 8
  %71 = call i32 @unpackstr_xmalloc_chooser(ptr noundef %69, ptr noundef %12, ptr noundef %70)
  %72 = icmp ne i32 %71, 0
  br i1 %72, label %73, label %74

73:                                               ; preds = %64
  store i32 4, ptr %10, align 4
  br label %75

74:                                               ; preds = %64
  store i32 0, ptr %10, align 4
  br label %75

75:                                               ; preds = %73, %74
  call void @llvm.lifetime.end.p0(i64 4, ptr %12) #9
  %76 = load i32, ptr %10, align 4
  switch i32 %76, label %83 [
    i32 0, label %77
  ]

77:                                               ; preds = %75
  br label %78

78:                                               ; preds = %77
  br label %79

79:                                               ; preds = %78
  br label %80

80:                                               ; preds = %79
  %81 = load i32, ptr %11, align 4
  %82 = add i32 %81, 1
  store i32 %82, ptr %11, align 4
  br label %57, !llvm.loop !18

83:                                               ; preds = %75, %62
  call void @llvm.lifetime.end.p0(i64 4, ptr %11) #9
  %84 = load i32, ptr %10, align 4
  switch i32 %84, label %91 [
    i32 7, label %85
    i32 4, label %86
  ]

85:                                               ; preds = %83
  store i32 0, ptr %4, align 4
  br label %89

86:                                               ; preds = %83, %53, %30, %19
  %87 = load ptr, ptr %6, align 8
  store i32 0, ptr %87, align 4
  %88 = load ptr, ptr %5, align 8
  call void @slurm_xfree_array(ptr noundef %88)
  store i32 -1, ptr %4, align 4
  br label %89

89:                                               ; preds = %86, %85, %25
  %90 = load i32, ptr %4, align 4
  ret i32 %90

91:                                               ; preds = %83, %53
  unreachable
}