; Function Attrs: nounwind uwtable
define dso_local range(i32 -1, 1) i32 @unpackstr_array(ptr noundef initializes((0, 8)) %0, ptr noundef captures(none) initializes((0, 4)) %1, ptr noundef captures(none) %2) #0 {
  %4 = alloca i32, align 4
  store ptr null, ptr %0, align 8
  %5 = getelementptr inbounds nuw i8, ptr %2, i64 16
  %6 = load i32, ptr %5, align 8
  %7 = getelementptr inbounds nuw i8, ptr %2, i64 20
  %8 = load i32, ptr %7, align 4
  %9 = sub i32 %6, %8
  %10 = icmp ult i32 %9, 4
  br i1 %10, label %unpack32.exit, label %11

11:                                               ; preds = %3
  %12 = getelementptr inbounds nuw i8, ptr %2, i64 8
  %13 = load ptr, ptr %12, align 8
  %14 = zext i32 %8 to i64
  %15 = getelementptr inbounds nuw i8, ptr %13, i64 %14
  %.0.copyload.i = load i32, ptr %15, align 1
  %16 = tail call noundef i32 @llvm.bswap.i32(i32 %.0.copyload.i)
  store i32 %16, ptr %1, align 4
  %17 = load i32, ptr %7, align 4
  %18 = add i32 %17, 4
  store i32 %18, ptr %7, align 4
  %19 = load i32, ptr %1, align 4
  %.not28 = icmp eq i32 %19, 0
  br i1 %.not28, label %.thread, label %20

20:                                               ; preds = %11
  %21 = icmp ugt i32 %19, 1073741824
  br i1 %21, label %unpack32.exit, label %22

22:                                               ; preds = %20
  %23 = add nuw nsw i32 %19, 1
  %24 = zext nneg i32 %23 to i64
  %25 = tail call ptr @slurm_xcalloc(i64 noundef %24, i64 noundef 8, i1 noundef zeroext true, i1 noundef zeroext true, ptr noundef nonnull @.str.1, i32 noundef 1107, ptr noundef nonnull @__func__.unpackstr_array) #14
  store ptr %25, ptr %0, align 8
  %.not29 = icmp eq ptr %25, null
  br i1 %.not29, label %unpack32.exit, label %.preheader

.preheader:                                       ; preds = %22
  %26 = load i32, ptr %1, align 4
  %.not = icmp eq i32 %26, 0
  br i1 %.not, label %.thread, label %.lr.ph

.lr.ph:                                           ; preds = %.preheader, %65
  %indvars.iv = phi i64 [ %indvars.iv.next, %65 ], [ 0, %.preheader ]
  call void @llvm.lifetime.start.p0(i64 4, ptr nonnull %4) #14
  %27 = load ptr, ptr %0, align 8
  %28 = getelementptr inbounds nuw ptr, ptr %27, i64 %indvars.iv
  %29 = load ptr, ptr @slurmdbd_conf, align 8
  %.not.i = icmp eq ptr %29, null
  br i1 %.not.i, label %30, label %unpackstr_xmalloc_chooser.exit

30:                                               ; preds = %.lr.ph
  store ptr null, ptr %28, align 8
  %31 = load i32, ptr %5, align 8
  %32 = load i32, ptr %7, align 4
  %33 = sub i32 %31, %32
  %34 = icmp ult i32 %33, 4
  br i1 %34, label %.thread45, label %35

35:                                               ; preds = %30
  %36 = load ptr, ptr %12, align 8
  %37 = zext i32 %32 to i64
  %38 = getelementptr inbounds nuw i8, ptr %36, i64 %37
  %.0.copyload.i.i = load i32, ptr %38, align 1
  %39 = tail call noundef i32 @llvm.bswap.i32(i32 %.0.copyload.i.i)
  %40 = add i32 %32, 4
  store i32 %40, ptr %7, align 4
  %.not27.i = icmp eq i32 %.0.copyload.i.i, 0
  br i1 %.not27.i, label %unpackstr_xmalloc_chooser.exit.thread, label %41

41:                                               ; preds = %35
  %42 = icmp ugt i32 %39, 1073741824
  br i1 %42, label %43, label %45

43:                                               ; preds = %41
  %44 = tail call i32 (ptr, ...) @error(ptr noundef nonnull @.str.15, ptr noundef nonnull @__func__.unpackstr_xmalloc, i32 noundef %39, i32 noundef 1073741824) #14
  br label %.thread45

45:                                               ; preds = %41
  %46 = sub i32 %31, %40
  %47 = icmp ult i32 %46, %39
  br i1 %47, label %.thread45, label %48

48:                                               ; preds = %45
  %49 = add i32 %32, 3
  %50 = add i32 %49, %39
  %51 = zext i32 %50 to i64
  %52 = getelementptr inbounds nuw i8, ptr %36, i64 %51
  %53 = load i8, ptr %52, align 1
  %.not28.i = icmp eq i8 %53, 0
  br i1 %.not28.i, label %54, label %.thread45

54:                                               ; preds = %48
  %55 = zext nneg i32 %39 to i64
  %56 = tail call ptr @slurm_xcalloc(i64 noundef 1, i64 noundef %55, i1 noundef zeroext true, i1 noundef zeroext true, ptr noundef nonnull @.str.1, i32 noundef 969, ptr noundef nonnull @__func__.unpackstr_xmalloc) #14
  store ptr %56, ptr %28, align 8
  %.not29.i = icmp eq ptr %56, null
  br i1 %.not29.i, label %.thread45, label %57

57:                                               ; preds = %54
  %58 = load ptr, ptr %12, align 8
  %59 = load i32, ptr %7, align 4
  %60 = zext i32 %59 to i64
  %61 = getelementptr inbounds nuw i8, ptr %58, i64 %60
  tail call void @llvm.memcpy.p0.p0.i64(ptr nonnull align 1 %56, ptr align 1 %61, i64 %55, i1 false)
  %62 = load i32, ptr %7, align 4
  %63 = add i32 %62, %39
  store i32 %63, ptr %7, align 4
  br label %unpackstr_xmalloc_chooser.exit.thread

.thread45:                                        ; preds = %54, %48, %45, %30, %43
  call void @llvm.lifetime.end.p0(i64 4, ptr nonnull %4) #14
  br label %unpack32.exit

unpackstr_xmalloc_chooser.exit.thread:            ; preds = %57, %35
  call void @llvm.lifetime.end.p0(i64 4, ptr nonnull %4) #14
  br label %65

unpackstr_xmalloc_chooser.exit:                   ; preds = %.lr.ph
  %64 = call i32 @unpackstr_xmalloc_escaped(ptr noundef %28, ptr noundef nonnull %4, ptr noundef %2)
  %.not30 = icmp eq i32 %64, 0
  call void @llvm.lifetime.end.p0(i64 4, ptr nonnull %4) #14
  br i1 %.not30, label %65, label %unpack32.exit

65:                                               ; preds = %unpackstr_xmalloc_chooser.exit.thread, %unpackstr_xmalloc_chooser.exit
  %indvars.iv.next = add nuw nsw i64 %indvars.iv, 1
  %66 = load i32, ptr %1, align 4
  %67 = zext i32 %66 to i64
  %68 = icmp samesign ult i64 %indvars.iv.next, %67
  br i1 %68, label %.lr.ph, label %.thread, !llvm.loop !18

unpack32.exit:                                    ; preds = %unpackstr_xmalloc_chooser.exit, %.thread45, %3, %22, %20
  store i32 0, ptr %1, align 4
  tail call void @slurm_xfree_array(ptr noundef nonnull %0) #14
  br label %.thread

.thread:                                          ; preds = %65, %.preheader, %11, %unpack32.exit
  %.025 = phi i32 [ -1, %unpack32.exit ], [ 0, %11 ], [ 0, %.preheader ], [ 0, %65 ]
  ret i32 %.025
}